; Function Attrs: nounwind uwtable
define internal range(i32 0, 2) i32 @dtls_listen_test(i32 noundef %0) #0 {
  %2 = alloca ptr, align 8
  %3 = sext i32 %0 to i64
  %4 = getelementptr inbounds [9 x %struct.tests], ptr @testpackets, i64 0, i64 %3
  call void @llvm.lifetime.start.p0(i64 8, ptr nonnull %2) #5
  %5 = tail call ptr @DTLS_server_method() #5
  %6 = tail call ptr @SSL_CTX_new(ptr noundef %5) #5
  %7 = tail call i32 @test_ptr(ptr noundef nonnull @.str.1, i32 noundef 301, ptr noundef nonnull @.str.2, ptr noundef %6) #5
  %.not = icmp eq i32 %7, 0
  br i1 %.not, label %54, label %8

8:                                                ; preds = %1
  %9 = tail call ptr @BIO_ADDR_new() #5
  %10 = tail call i32 @test_ptr(ptr noundef nonnull @.str.1, i32 noundef 302, ptr noundef nonnull @.str.3, ptr noundef %9) #5
  %.not33 = icmp eq i32 %10, 0
  br i1 %.not33, label %54, label %11

11:                                               ; preds = %8
  tail call void @SSL_CTX_set_cookie_generate_cb(ptr noundef %6, ptr noundef nonnull @cookie_gen) #5
  tail call void @SSL_CTX_set_cookie_verify_cb(ptr noundef %6, ptr noundef nonnull @cookie_verify) #5
  %12 = tail call ptr @SSL_new(ptr noundef %6) #5
  %13 = tail call i32 @test_ptr(ptr noundef nonnull @.str.1, i32 noundef 308, ptr noundef nonnull @.str.4, ptr noundef %12) #5
  %.not34 = icmp eq i32 %13, 0
  br i1 %.not34, label %54, label %14

14:                                               ; preds = %11
  %15 = tail call ptr @BIO_s_mem() #5
  %16 = tail call ptr @BIO_new(ptr noundef %15) #5
  %17 = tail call i32 @test_ptr(ptr noundef nonnull @.str.1, i32 noundef 309, ptr noundef nonnull @.str.5, ptr noundef %16) #5
  %.not35 = icmp eq i32 %17, 0
  br i1 %.not35, label %54, label %18

18:                                               ; preds = %14
  tail call void @SSL_set0_wbio(ptr noundef %12, ptr noundef %16) #5
  %19 = load ptr, ptr %4, align 16, !tbaa !4
  %20 = getelementptr inbounds nuw i8, ptr %4, i64 8
  %21 = load i32, ptr %20, align 8, !tbaa !11
  %22 = tail call ptr @BIO_new_mem_buf(ptr noundef %19, i32 noundef %21) #5
  %23 = tail call i32 @test_ptr(ptr noundef nonnull @.str.1, i32 noundef 314, ptr noundef nonnull @.str.6, ptr noundef %22) #5
  %.not36 = icmp eq i32 %23, 0
  br i1 %.not36, label %54, label %24

24:                                               ; preds = %18
  %25 = tail call i64 @BIO_ctrl(ptr noundef %22, i32 noundef 130, i64 noundef -1, ptr noundef null) #5
  tail call void @SSL_set0_rbio(ptr noundef %12, ptr noundef %22) #5
  %26 = tail call i32 @DTLSv1_listen(ptr noundef %12, ptr noundef %9) #5
  %27 = tail call i32 @test_int_ge(ptr noundef nonnull @.str.1, i32 noundef 320, ptr noundef nonnull @.str.7, ptr noundef nonnull @.str.8, i32 noundef %26, i32 noundef 0) #5
  %.not37 = icmp eq i32 %27, 0
  br i1 %.not37, label %54, label %28

28:                                               ; preds = %24
  %29 = call i64 @BIO_ctrl(ptr noundef %16, i32 noundef 3, i64 noundef 0, ptr noundef nonnull %2) #5
  %30 = getelementptr inbounds nuw i8, ptr %4, i64 12
  %31 = load i32, ptr %30, align 4, !tbaa !12
  %32 = icmp eq i32 %31, 1
  br i1 %32, label %33, label %38

33:                                               ; preds = %28
  %34 = call i32 @test_int_eq(ptr noundef nonnull @.str.1, i32 noundef 325, ptr noundef nonnull @.str.9, ptr noundef nonnull @.str.8, i32 noundef %26, i32 noundef 0) #5
  %.not39 = icmp eq i32 %34, 0
  br i1 %.not39, label %54, label %35

35:                                               ; preds = %33
  %36 = load ptr, ptr %2, align 8, !tbaa !13
  %37 = call i32 @test_mem_eq(ptr noundef nonnull @.str.1, i32 noundef 326, ptr noundef nonnull @.str.10, ptr noundef nonnull @.str.11, ptr noundef %36, i64 noundef %29, ptr noundef nonnull @verify, i64 noundef 48) #5
  %.not40 = icmp eq i32 %37, 0
  br i1 %.not40, label %54, label %52

38:                                               ; preds = %28
  %39 = icmp eq i64 %29, 0
  br i1 %39, label %40, label %51

40:                                               ; preds = %38
  %41 = icmp eq i32 %26, 0
  %42 = icmp eq i32 %31, 2
  %or.cond = and i1 %41, %42
  br i1 %or.cond, label %48, label %43

43:                                               ; preds = %40
  %44 = icmp eq i32 %26, 1
  br i1 %44, label %45, label %48

45:                                               ; preds = %43
  %46 = icmp eq i32 %31, 0
  %47 = zext i1 %46 to i32
  br label %48

48:                                               ; preds = %40, %43, %45
  %49 = phi i32 [ 0, %43 ], [ %47, %45 ], [ 1, %40 ]
  %50 = call i32 @test_true(ptr noundef nonnull @.str.1, i32 noundef 330, ptr noundef nonnull @.str.12, i32 noundef %49) #5
  %.not38 = icmp eq i32 %50, 0
  br i1 %.not38, label %54, label %52

51:                                               ; preds = %38
  call void (ptr, i32, ptr, ...) @test_info(ptr noundef nonnull @.str.1, i32 noundef 333, ptr noundef nonnull @.str.13, i32 noundef %0) #5
  br label %54

52:                                               ; preds = %48, %35
  %53 = call i64 @BIO_ctrl(ptr noundef %16, i32 noundef 1, i64 noundef 0, ptr noundef null) #5
  call void @SSL_set0_rbio(ptr noundef %12, ptr noundef null) #5
  br label %54

54:                                               ; preds = %48, %33, %35, %24, %18, %11, %14, %1, %8, %52, %51
  %.031 = phi ptr [ null, %52 ], [ %22, %35 ], [ %22, %33 ], [ %22, %48 ], [ %22, %51 ], [ %22, %24 ], [ %22, %18 ], [ null, %14 ], [ null, %11 ], [ null, %8 ], [ null, %1 ]
  %.030 = phi ptr [ %9, %52 ], [ %9, %35 ], [ %9, %33 ], [ %9, %48 ], [ %9, %51 ], [ %9, %24 ], [ %9, %18 ], [ %9, %14 ], [ %9, %11 ], [ %9, %8 ], [ null, %1 ]
  %.029 = phi ptr [ %12, %52 ], [ %12, %35 ], [ %12, %33 ], [ %12, %48 ], [ %12, %51 ], [ %12, %24 ], [ %12, %18 ], [ %12, %14 ], [ %12, %11 ], [ null, %8 ], [ null, %1 ]
  %.0 = phi i32 [ 1, %52 ], [ 0, %35 ], [ 0, %33 ], [ 0, %48 ], [ 0, %51 ], [ 0, %24 ], [ 0, %18 ], [ 0, %14 ], [ 0, %11 ], [ 0, %8 ], [ 0, %1 ]
  call void @SSL_free(ptr noundef %.029) #5
  call void @SSL_CTX_free(ptr noundef %6) #5
  %55 = call i32 @BIO_free(ptr noundef %.031) #5
  call void @CRYPTO_free(ptr noundef %.030, ptr noundef nonnull @.str.1, i32 noundef 346) #5
  call void @llvm.lifetime.end.p0(i64 8, ptr nonnull %2) #5
  ret i32 %.0
}